; Function Attrs: mustprogress nofree nounwind willreturn memory(read, argmem: readwrite, inaccessiblemem: none) uwtable
define internal range(i32 0, 2) i32 @H5O__attr_rename_chk_cb(ptr nocapture readnone %0, ptr nocapture noundef readonly %1, i32 %2, ptr nocapture readnone %3, ptr nocapture noundef %4) #2 {
  %6 = getelementptr inbounds i8, ptr %1, i64 24
  %7 = load ptr, ptr %6, align 8
  %8 = getelementptr inbounds i8, ptr %7, i64 96
  %9 = load ptr, ptr %8, align 8
  %10 = getelementptr inbounds i8, ptr %9, i64 8
  %11 = load ptr, ptr %10, align 8
  %12 = getelementptr inbounds i8, ptr %4, i64 16
  %13 = load ptr, ptr %12, align 8
  %14 = tail call i32 @strcmp(ptr noundef nonnull dereferenceable(1) %11, ptr noundef nonnull dereferenceable(1) %13) #11
  %15 = icmp eq i32 %14, 0
  br i1 %15, label %16, label %18

16:                                               ; preds = %5
  %17 = getelementptr inbounds i8, ptr %4, i64 24
  store i8 1, ptr %17, align 8
  br label %18

18:                                               ; preds = %16, %5
  %.0 = phi i32 [ 1, %16 ], [ 0, %5 ]
  ret i32 %.0
}